target datalayout = "e-m:e-p270:32:32-p271:32:32-p272:64:64-i64:64-i128:128-f80:128-n8:16:32:64-S128"
target triple = "x86_64-pc-linux-gnu"

@hf_gsm_a_rr_rep_priority = internal global i32 0, align 4
@hf_gsm_a_rr_number_cells = internal global i32 0, align 4
@ett_gsm_rr_rest_octets_elem = hidden global [61 x i32] zeroinitializer, align 16

; Function Attrs: null_pointer_is_valid sspstrong uwtable
define internal i32 @de_rr_report_priority_desc(ptr noundef %0, ptr noundef %1, i32 noundef %2, i32 noundef %3) #1 {
  %5 = alloca ptr, align 8
  %6 = alloca ptr, align 8
  %7 = alloca i32, align 4
  %8 = alloca i32, align 4
  %9 = alloca ptr, align 8
  %10 = alloca ptr, align 8
  %11 = alloca i32, align 4
  %12 = alloca i32, align 4
  store ptr %0, ptr %5, align 8
  store ptr %1, ptr %6, align 8
  store i32 %2, ptr %7, align 4
  store i32 %3, ptr %8, align 4
  call void @llvm.lifetime.start.p0(i64 8, ptr %9) #11
  call void @llvm.lifetime.start.p0(i64 8, ptr %10) #11
  call void @llvm.lifetime.start.p0(i64 4, ptr %11) #11
  call void @llvm.lifetime.start.p0(i64 4, ptr %12) #11
  %13 = load i32, ptr %7, align 4
  store i32 %13, ptr %11, align 4
  %14 = load ptr, ptr %6, align 8
  %15 = load ptr, ptr %5, align 8
  %16 = load i32, ptr %11, align 4
  %17 = ashr i32 %16, 3
  %18 = load i32, ptr %8, align 4
  %19 = zext i32 %18 to i64
  %20 = getelementptr [61 x i32], ptr @ett_gsm_rr_rest_octets_elem, i64 0, i64 %19
  %21 = load i32, ptr %20, align 4
  %22 = load i32, ptr %8, align 4
  %23 = zext i32 %22 to i64
  %24 = getelementptr [61 x ptr], ptr @gsm_rr_rest_octets_elem_strings, i64 0, i64 %23
  %25 = load ptr, ptr %24, align 8
  %26 = call ptr @proto_tree_add_subtree(ptr noundef %14, ptr noundef %15, i32 noundef %17, i32 noundef -1, i32 noundef %21, ptr noundef %10, ptr noundef %25)
  store ptr %26, ptr %9, align 8
  %27 = load ptr, ptr %5, align 8
  %28 = load i32, ptr %11, align 4
  %29 = call zeroext i8 @tvb_get_bits8(ptr noundef %27, i32 noundef %28, i32 noundef 7)
  %30 = zext i8 %29 to i32
  store i32 %30, ptr %12, align 4
  %31 = load ptr, ptr %9, align 8
  %32 = load i32, ptr @hf_gsm_a_rr_number_cells, align 4
  %33 = load ptr, ptr %5, align 8
  %34 = load i32, ptr %11, align 4
  %35 = ashr i32 %34, 3
  %36 = load i32, ptr %12, align 4
  %37 = call ptr @proto_tree_add_uint(ptr noundef %31, i32 noundef %32, ptr noundef %33, i32 noundef %35, i32 noundef 1, i32 noundef %36)
  %38 = load i32, ptr %11, align 4
  %39 = add i32 %38, 7
  store i32 %39, ptr %11, align 4
  br label %40

40:                                               ; preds = %43, %4
  %41 = load i32, ptr %12, align 4
  %42 = icmp ne i32 %41, 0
  br i1 %42, label %43, label %53

43:                                               ; preds = %40
  %44 = load ptr, ptr %9, align 8
  %45 = load i32, ptr @hf_gsm_a_rr_rep_priority, align 4
  %46 = load ptr, ptr %5, align 8
  %47 = load i32, ptr %11, align 4
  %48 = call ptr @proto_tree_add_bits_item(ptr noundef %44, i32 noundef %45, ptr noundef %46, i32 noundef %47, i32 noundef 1, i32 noundef 0)
  %49 = load i32, ptr %11, align 4
  %50 = add i32 %49, 1
  store i32 %50, ptr %11, align 4
  %51 = load i32, ptr %12, align 4
  %52 = sub i32 %51, 1
  store i32 %52, ptr %12, align 4
  br label %40, !llvm.loop !65

53:                                               ; preds = %40
  %54 = load ptr, ptr %10, align 8
  %55 = load i32, ptr %11, align 4
  %56 = ashr i32 %55, 3
  %57 = load i32, ptr %7, align 4
  %58 = ashr i32 %57, 3
  %59 = sub i32 %56, %58
  %60 = add i32 %59, 1
  call void @proto_item_set_len(ptr noundef %54, i32 noundef %60)
  %61 = load i32, ptr %11, align 4
  %62 = load i32, ptr %7, align 4
  %63 = sub i32 %61, %62
  call void @llvm.lifetime.end.p0(i64 4, ptr %12) #11
  call void @llvm.lifetime.end.p0(i64 4, ptr %11) #11
  call void @llvm.lifetime.end.p0(i64 8, ptr %10) #11
  call void @llvm.lifetime.end.p0(i64 8, ptr %9) #11
  ret i32 %63
}