; Function Attrs: null_pointer_is_valid sspstrong uwtable
define internal fastcc noundef i32 @de_rr_report_priority_desc(ptr noundef %0, ptr noundef %1, i32 noundef %2, i32 noundef range(i32 7, 44) %3) unnamed_addr #3 {
  %5 = alloca ptr, align 8
  call void @llvm.lifetime.start.p0(i64 8, ptr nonnull %5) #11
  %6 = ashr i32 %2, 3
  %7 = zext nneg i32 %3 to i64
  %8 = getelementptr [61 x i32], ptr @ett_gsm_rr_rest_octets_elem, i64 0, i64 %7
  %9 = load i32, ptr %8, align 4
  %10 = getelementptr [61 x ptr], ptr @gsm_rr_rest_octets_elem_strings, i64 0, i64 %7
  %11 = load ptr, ptr %10, align 8
  %12 = call ptr @proto_tree_add_subtree(ptr noundef %1, ptr noundef %0, i32 noundef %6, i32 noundef -1, i32 noundef %9, ptr noundef nonnull %5, ptr noundef %11)
  %13 = call zeroext i8 @tvb_get_bits8(ptr noundef %0, i32 noundef %2, i32 noundef 7)
  %14 = zext i8 %13 to i32
  %15 = load i32, ptr @hf_gsm_a_rr_number_cells, align 4
  %16 = call ptr @proto_tree_add_uint(ptr noundef %12, i32 noundef %15, ptr noundef %0, i32 noundef %6, i32 noundef 1, i32 noundef %14)
  %17 = add i32 %2, 7
  %.not23 = icmp eq i8 %13, 0
  br i1 %.not23, label %._crit_edge, label %.lr.ph

.lr.ph:                                           ; preds = %4, %.lr.ph
  %.025 = phi i32 [ %21, %.lr.ph ], [ %14, %4 ]
  %.02224 = phi i32 [ %20, %.lr.ph ], [ %17, %4 ]
  %18 = load i32, ptr @hf_gsm_a_rr_rep_priority, align 4
  %19 = call ptr @proto_tree_add_bits_item(ptr noundef %12, i32 noundef %18, ptr noundef %0, i32 noundef %.02224, i32 noundef 1, i32 noundef 0)
  %20 = add i32 %.02224, 1
  %21 = add nsw i32 %.025, -1
  %.not = icmp eq i32 %21, 0
  br i1 %.not, label %._crit_edge, label %.lr.ph, !llvm.loop !66

._crit_edge:                                      ; preds = %.lr.ph, %4
  %.022.lcssa = phi i32 [ %17, %4 ], [ %20, %.lr.ph ]
  %22 = load ptr, ptr %5, align 8
  %23 = ashr i32 %.022.lcssa, 3
  %reass.sub = sub nsw i32 %23, %6
  %24 = add nsw i32 %reass.sub, 1
  call void @proto_item_set_len(ptr noundef %22, i32 noundef %24)
  %25 = sub i32 %.022.lcssa, %2
  call void @llvm.lifetime.end.p0(i64 8, ptr nonnull %5) #11
  ret i32 %25
}